; Function Attrs: mustprogress nofree norecurse nosync nounwind willreturn memory(argmem: readwrite) uwtable
define internal range(i32 0, 3) i32 @cf_tcp_accept_connect(ptr noundef readonly captures(none) %0, ptr readnone captures(none) %1, i1 zeroext %2, ptr noundef writeonly captures(none) %3) #5 {
  %5 = getelementptr inbounds nuw i8, ptr %0, i64 36
  %6 = load i8, ptr %5, align 4
  %7 = and i8 %6, 1
  %.not = icmp eq i8 %7, 0
  br i1 %.not, label %9, label %8

8:                                                ; preds = %4
  store i8 1, ptr %3, align 1
  br label %9

9:                                                ; preds = %4, %8
  %.0 = phi i32 [ 0, %8 ], [ 2, %4 ]
  ret i32 %.0
}